target datalayout = "e-m:e-p270:32:32-p271:32:32-p272:64:64-i64:64-i128:128-f80:128-n8:16:32:64-S128"
target triple = "x86_64-pc-linux-gnu"

%struct.Amap_Lib_t_ = type { ptr, ptr, ptr, ptr, ptr, ptr, ptr, ptr, ptr, i32, i32, i32, ptr, i32, i32, ptr, ptr, ptr, ptr, ptr, ptr, i32 }
%struct.Vec_Ptr_t_ = type { i32, i32, ptr }
%struct.Amap_Gat_t_ = type { ptr, ptr, ptr, ptr, double, ptr, ptr, i32, [0 x %struct.Amap_Pin_t_] }
%struct.Amap_Pin_t_ = type { ptr, i32, double, double, double, double, double, double, double }

; Function Attrs: nounwind uwtable
define internal ptr @Vec_PtrEntry(ptr noundef %0, i32 noundef %1) #0 {
  %3 = alloca ptr, align 8
  %4 = alloca i32, align 4
  store ptr %0, ptr %3, align 8
  store i32 %1, ptr %4, align 4
  %5 = load ptr, ptr %3, align 8
  %6 = getelementptr inbounds %struct.Vec_Ptr_t_, ptr %5, i32 0, i32 2
  %7 = load ptr, ptr %6, align 8
  %8 = load i32, ptr %4, align 4
  %9 = sext i32 %8 to i64
  %10 = getelementptr inbounds ptr, ptr %7, i64 %9
  %11 = load ptr, ptr %10, align 8
  ret ptr %11
}

; Function Attrs: nounwind uwtable
define internal i32 @Vec_PtrSize(ptr noundef %0) #0 {
  %2 = alloca ptr, align 8
  store ptr %0, ptr %2, align 8
  %3 = load ptr, ptr %2, align 8
  %4 = getelementptr inbounds %struct.Vec_Ptr_t_, ptr %3, i32 0, i32 1
  %5 = load i32, ptr %4, align 4
  ret i32 %5
}

; Function Attrs: nounwind uwtable
define i32 @Amap_LibNumPinsMax(ptr noundef %0) #0 {
  %2 = alloca ptr, align 8
  %3 = alloca ptr, align 8
  %4 = alloca i32, align 4
  %5 = alloca i32, align 4
  store ptr %0, ptr %2, align 8
  store i32 0, ptr %5, align 4
  store i32 0, ptr %4, align 4
  br label %6

6:                                                ; preds = %34, %1
  %7 = load i32, ptr %4, align 4
  %8 = load ptr, ptr %2, align 8
  %9 = getelementptr inbounds %struct.Amap_Lib_t_, ptr %8, i32 0, i32 1
  %10 = load ptr, ptr %9, align 8
  %11 = call i32 @Vec_PtrSize(ptr noundef %10)
  %12 = icmp slt i32 %7, %11
  br i1 %12, label %13, label %19

13:                                               ; preds = %6
  %14 = load ptr, ptr %2, align 8
  %15 = getelementptr inbounds %struct.Amap_Lib_t_, ptr %14, i32 0, i32 1
  %16 = load ptr, ptr %15, align 8
  %17 = load i32, ptr %4, align 4
  %18 = call ptr @Vec_PtrEntry(ptr noundef %16, i32 noundef %17)
  store ptr %18, ptr %3, align 8
  br label %19

19:                                               ; preds = %13, %6
  %20 = phi i1 [ false, %6 ], [ true, %13 ]
  br i1 %20, label %21, label %37

21:                                               ; preds = %19
  %22 = load i32, ptr %5, align 4
  %23 = load ptr, ptr %3, align 8
  %24 = getelementptr inbounds %struct.Amap_Gat_t_, ptr %23, i32 0, i32 7
  %25 = load i32, ptr %24, align 8
  %26 = lshr i32 %25, 24
  %27 = icmp slt i32 %22, %26
  br i1 %27, label %28, label %33

28:                                               ; preds = %21
  %29 = load ptr, ptr %3, align 8
  %30 = getelementptr inbounds %struct.Amap_Gat_t_, ptr %29, i32 0, i32 7
  %31 = load i32, ptr %30, align 8
  %32 = lshr i32 %31, 24
  store i32 %32, ptr %5, align 4
  br label %33

33:                                               ; preds = %28, %21
  br label %34

34:                                               ; preds = %33
  %35 = load i32, ptr %4, align 4
  %36 = add nsw i32 %35, 1
  store i32 %36, ptr %4, align 4
  br label %6, !llvm.loop !6

37:                                               ; preds = %19
  %38 = load i32, ptr %5, align 4
  ret i32 %38
}